target datalayout = "e-m:e-p270:32:32-p271:32:32-p272:64:64-i64:64-i128:128-f80:128-n8:16:32:64-S128"
target triple = "x86_64-pc-linux-gnu"

%struct.GENERAL_NAME_st = type { i32, %union.anon }
%union.anon = type { ptr }

; Function Attrs: inlinehint nounwind uwtable
define internal ptr @ossl_check_const_GENERAL_NAME_sk_type(ptr noundef %0) #4 {
  %2 = alloca ptr, align 8
  store ptr %0, ptr %2, align 8, !tbaa !40
  %3 = load ptr, ptr %2, align 8, !tbaa !40
  ret ptr %3
}

; Function Attrs: nounwind uwtable
define internal ptr @get_email(ptr noundef %0, ptr noundef %1) #0 {
  %3 = alloca ptr, align 8
  %4 = alloca ptr, align 8
  %5 = alloca ptr, align 8
  %6 = alloca ptr, align 8
  %7 = alloca ptr, align 8
  %8 = alloca ptr, align 8
  %9 = alloca ptr, align 8
  %10 = alloca i32, align 4
  %11 = alloca i32, align 4
  store ptr %0, ptr %4, align 8, !tbaa !44
  store ptr %1, ptr %5, align 8, !tbaa !40
  call void @llvm.lifetime.start.p0(i64 8, ptr %6) #8
  store ptr null, ptr %6, align 8, !tbaa !42
  call void @llvm.lifetime.start.p0(i64 8, ptr %7) #8
  call void @llvm.lifetime.start.p0(i64 8, ptr %8) #8
  call void @llvm.lifetime.start.p0(i64 8, ptr %9) #8
  call void @llvm.lifetime.start.p0(i64 4, ptr %10) #8
  store i32 -1, ptr %10, align 4, !tbaa !15
  br label %12

12:                                               ; preds = %27, %2
  %13 = load ptr, ptr %4, align 8, !tbaa !44
  %14 = load i32, ptr %10, align 4, !tbaa !15
  %15 = call i32 @X509_NAME_get_index_by_NID(ptr noundef %13, i32 noundef 48, i32 noundef %14)
  store i32 %15, ptr %10, align 4, !tbaa !15
  %16 = icmp sge i32 %15, 0
  br i1 %16, label %17, label %28

17:                                               ; preds = %12
  %18 = load ptr, ptr %4, align 8, !tbaa !44
  %19 = load i32, ptr %10, align 4, !tbaa !15
  %20 = call ptr @X509_NAME_get_entry(ptr noundef %18, i32 noundef %19)
  store ptr %20, ptr %7, align 8, !tbaa !46
  %21 = load ptr, ptr %7, align 8, !tbaa !46
  %22 = call ptr @X509_NAME_ENTRY_get_data(ptr noundef %21)
  store ptr %22, ptr %8, align 8, !tbaa !23
  %23 = load ptr, ptr %8, align 8, !tbaa !23
  %24 = call i32 @append_ia5(ptr noundef %6, ptr noundef %23)
  %25 = icmp ne i32 %24, 0
  br i1 %25, label %27, label %26

26:                                               ; preds = %17
  store ptr null, ptr %3, align 8
  store i32 1, ptr %11, align 4
  br label %58

27:                                               ; preds = %17
  br label %12, !llvm.loop !48

28:                                               ; preds = %12
  store i32 0, ptr %10, align 4, !tbaa !15
  br label %29

29:                                               ; preds = %53, %28
  %30 = load i32, ptr %10, align 4, !tbaa !15
  %31 = load ptr, ptr %5, align 8, !tbaa !40
  %32 = call ptr @ossl_check_const_GENERAL_NAME_sk_type(ptr noundef %31)
  %33 = call i32 @OPENSSL_sk_num(ptr noundef %32)
  %34 = icmp slt i32 %30, %33
  br i1 %34, label %35, label %56

35:                                               ; preds = %29
  %36 = load ptr, ptr %5, align 8, !tbaa !40
  %37 = call ptr @ossl_check_const_GENERAL_NAME_sk_type(ptr noundef %36)
  %38 = load i32, ptr %10, align 4, !tbaa !15
  %39 = call ptr @OPENSSL_sk_value(ptr noundef %37, i32 noundef %38)
  store ptr %39, ptr %9, align 8, !tbaa !49
  %40 = load ptr, ptr %9, align 8, !tbaa !49
  %41 = getelementptr inbounds nuw %struct.GENERAL_NAME_st, ptr %40, i32 0, i32 0
  %42 = load i32, ptr %41, align 8, !tbaa !51
  %43 = icmp ne i32 %42, 1
  br i1 %43, label %44, label %45

44:                                               ; preds = %35
  br label %53

45:                                               ; preds = %35
  %46 = load ptr, ptr %9, align 8, !tbaa !49
  %47 = getelementptr inbounds nuw %struct.GENERAL_NAME_st, ptr %46, i32 0, i32 1
  %48 = load ptr, ptr %47, align 8, !tbaa !27
  %49 = call i32 @append_ia5(ptr noundef %6, ptr noundef %48)
  %50 = icmp ne i32 %49, 0
  br i1 %50, label %52, label %51

51:                                               ; preds = %45
  store ptr null, ptr %3, align 8
  store i32 1, ptr %11, align 4
  br label %58

52:                                               ; preds = %45
  br label %53

53:                                               ; preds = %52, %44
  %54 = load i32, ptr %10, align 4, !tbaa !15
  %55 = add nsw i32 %54, 1
  store i32 %55, ptr %10, align 4, !tbaa !15
  br label %29, !llvm.loop !53

56:                                               ; preds = %29
  %57 = load ptr, ptr %6, align 8, !tbaa !42
  store ptr %57, ptr %3, align 8
  store i32 1, ptr %11, align 4
  br label %58

58:                                               ; preds = %56, %51, %26
  call void @llvm.lifetime.end.p0(i64 4, ptr %10) #8
  call void @llvm.lifetime.end.p0(i64 8, ptr %9) #8
  call void @llvm.lifetime.end.p0(i64 8, ptr %8) #8
  call void @llvm.lifetime.end.p0(i64 8, ptr %7) #8
  call void @llvm.lifetime.end.p0(i64 8, ptr %6) #8
  %59 = load ptr, ptr %3, align 8
  ret ptr %59
}