; Function Attrs: nounwind uwtable
define internal fastcc ptr @get_email(ptr noundef %0, ptr noundef %1) unnamed_addr #0 {
  %3 = alloca ptr, align 8
  call void @llvm.lifetime.start.p0(i64 8, ptr nonnull %3) #12
  store ptr null, ptr %3, align 8, !tbaa !27
  br label %4

4:                                                ; preds = %9, %2
  %.0 = phi i32 [ -1, %2 ], [ %5, %9 ]
  %5 = tail call i32 @X509_NAME_get_index_by_NID(ptr noundef %0, i32 noundef 48, i32 noundef %.0) #12
  %6 = icmp sgt i32 %5, -1
  br i1 %6, label %9, label %.preheader

.preheader:                                       ; preds = %4
  %7 = tail call i32 @OPENSSL_sk_num(ptr noundef %1) #12
  %8 = icmp sgt i32 %7, 0
  br i1 %8, label %.lr.ph, label %._crit_edge

9:                                                ; preds = %4
  %10 = tail call ptr @X509_NAME_get_entry(ptr noundef %0, i32 noundef %5) #12
  %11 = tail call ptr @X509_NAME_ENTRY_get_data(ptr noundef %10) #12
  %12 = call fastcc i32 @append_ia5(ptr noundef %3, ptr noundef %11)
  %.not16 = icmp eq i32 %12, 0
  br i1 %.not16, label %.loopexit, label %4, !llvm.loop !29

.lr.ph:                                           ; preds = %.preheader, %19
  %.118 = phi i32 [ %20, %19 ], [ 0, %.preheader ]
  %13 = tail call ptr @OPENSSL_sk_value(ptr noundef %1, i32 noundef %.118) #12
  %14 = load i32, ptr %13, align 8, !tbaa !30
  %.not = icmp eq i32 %14, 1
  br i1 %.not, label %15, label %19

15:                                               ; preds = %.lr.ph
  %16 = getelementptr inbounds nuw i8, ptr %13, i64 8
  %17 = load ptr, ptr %16, align 8, !tbaa !13
  %18 = call fastcc i32 @append_ia5(ptr noundef %3, ptr noundef %17)
  %.not15 = icmp eq i32 %18, 0
  br i1 %.not15, label %.loopexit, label %19

19:                                               ; preds = %15, %.lr.ph
  %20 = add nuw nsw i32 %.118, 1
  %21 = tail call i32 @OPENSSL_sk_num(ptr noundef %1) #12
  %22 = icmp slt i32 %20, %21
  br i1 %22, label %.lr.ph, label %._crit_edge, !llvm.loop !32

._crit_edge:                                      ; preds = %19, %.preheader
  %23 = load ptr, ptr %3, align 8, !tbaa !27
  br label %.loopexit

.loopexit:                                        ; preds = %9, %15, %._crit_edge
  %.013 = phi ptr [ %23, %._crit_edge ], [ null, %15 ], [ null, %9 ]
  call void @llvm.lifetime.end.p0(i64 8, ptr nonnull %3) #12
  ret ptr %.013
}